target datalayout = "e-m:e-p270:32:32-p271:32:32-p272:64:64-i64:64-i128:128-f80:128-n8:16:32:64-S128"
target triple = "x86_64-pc-linux-gnu"

@_ZZ28isPythonBindingsDebugEnabledvE11param_debug = internal global i8 0, align 1
@_ZGVZ28isPythonBindingsDebugEnabledvE11param_debug = internal global i64 0, align 8
@.str = private unnamed_addr constant [20 x i8] c"OPENCV_PYTHON_DEBUG\00", align 1

; Function Attrs: mustprogress uwtable
define hidden noundef zeroext i1 @_Z28isPythonBindingsDebugEnabledv() #4 personality ptr @__gxx_personality_v0 {
  %1 = alloca ptr, align 8
  %2 = alloca i32, align 4
  %3 = load atomic i8, ptr @_ZGVZ28isPythonBindingsDebugEnabledvE11param_debug acquire, align 8
  %4 = icmp eq i8 %3, 0
  br i1 %4, label %5, label %12, !prof !4

5:                                                ; preds = %0
  %6 = call i32 @__cxa_guard_acquire(ptr @_ZGVZ28isPythonBindingsDebugEnabledvE11param_debug) #3
  %7 = icmp ne i32 %6, 0
  br i1 %7, label %8, label %12

8:                                                ; preds = %5
  %9 = invoke noundef zeroext i1 @_ZN2cv5utils29getConfigurationParameterBoolEPKcb(ptr noundef @.str, i1 noundef zeroext false)
          to label %10 unwind label %15

10:                                               ; preds = %8
  %11 = zext i1 %9 to i8
  store i8 %11, ptr @_ZZ28isPythonBindingsDebugEnabledvE11param_debug, align 1
  call void @__cxa_guard_release(ptr @_ZGVZ28isPythonBindingsDebugEnabledvE11param_debug) #3
  br label %12

12:                                               ; preds = %10, %5, %0
  %13 = load i8, ptr @_ZZ28isPythonBindingsDebugEnabledvE11param_debug, align 1
  %14 = trunc i8 %13 to i1
  ret i1 %14

15:                                               ; preds = %8
  %16 = landingpad { ptr, i32 }
          cleanup
  %17 = extractvalue { ptr, i32 } %16, 0
  store ptr %17, ptr %1, align 8
  %18 = extractvalue { ptr, i32 } %16, 1
  store i32 %18, ptr %2, align 4
  call void @__cxa_guard_abort(ptr @_ZGVZ28isPythonBindingsDebugEnabledvE11param_debug) #3
  br label %19

19:                                               ; preds = %15
  %20 = load ptr, ptr %1, align 8
  %21 = load i32, ptr %2, align 4
  %22 = insertvalue { ptr, i32 } poison, ptr %20, 0
  %23 = insertvalue { ptr, i32 } %22, i32 %21, 1
  resume { ptr, i32 } %23
}